; ModuleID = '19/229.c'
source_filename = "19/229.c"
target datalayout = "e-m:e-p270:32:32-p271:32:32-p272:64:64-i64:64-f80:128-n8:16:32:64-S128"
target triple = "x86_64-pc-linux-gnu"

@.str = private unnamed_addr constant [4 x i8] c"%s \00", align 1
@.str.1 = private unnamed_addr constant [4 x i8] c"%s\0A\00", align 1

; Function Attrs: noinline nounwind uwtable
define dso_local i32 @main() #0 {
  %1 = alloca i32, align 4
  %2 = alloca [100 x i8], align 16
  %3 = alloca [100 x i8], align 16
  %4 = alloca [100 x i8], align 16
  %5 = alloca [100 x i8], align 16
  %6 = alloca i32, align 4
  %7 = alloca i32, align 4
  %8 = alloca i32, align 4
  %9 = alloca i32, align 4
  %10 = alloca i32, align 4
  %11 = alloca i32, align 4
  %12 = alloca i32, align 4
  %13 = alloca i32, align 4
  store i32 0, i32* %1, align 4
  store i32 0, i32* %9, align 4
  store i32 0, i32* %6, align 4
  %14 = getelementptr inbounds [100 x i8], [100 x i8]* %2, i64 0, i64 0
  %15 = call i32 (i8*, ...) bitcast (i32 (...)* @gets to i32 (i8*, ...)*)(i8* %14)
  %16 = getelementptr inbounds [100 x i8], [100 x i8]* %3, i64 0, i64 0
  %17 = call i32 (i8*, ...) bitcast (i32 (...)* @gets to i32 (i8*, ...)*)(i8* %16)
  %18 = getelementptr inbounds [100 x i8], [100 x i8]* %5, i64 0, i64 0
  %19 = call i32 (i8*, ...) bitcast (i32 (...)* @gets to i32 (i8*, ...)*)(i8* %18)
  %20 = getelementptr inbounds [100 x i8], [100 x i8]* %2, i64 0, i64 0
  %21 = call i64 @strlen(i8* %20) #4
  %22 = trunc i64 %21 to i32
  store i32 %22, i32* %10, align 4
  store i32 0, i32* %7, align 4
  br label %23

23:                                               ; preds = %43, %0
  %24 = load i32, i32* %7, align 4
  %25 = load i32, i32* %10, align 4
  %26 = icmp slt i32 %24, %25
  br i1 %26, label %27, label %46

27:                                               ; preds = %23
  %28 = load i32, i32* %7, align 4
  %29 = sext i32 %28 to i64
  %30 = getelementptr inbounds [100 x i8], [100 x i8]* %2, i64 0, i64 %29
  %31 = load i8, i8* %30, align 1
  %32 = sext i8 %31 to i32
  %33 = icmp eq i32 %32, 32
  br i1 %33, label %34, label %35

34:                                               ; preds = %27
  store i32 0, i32* %9, align 4
  br label %42

35:                                               ; preds = %27
  %36 = load i32, i32* %9, align 4
  %37 = icmp eq i32 %36, 0
  br i1 %37, label %38, label %41

38:                                               ; preds = %35
  %39 = load i32, i32* %6, align 4
  %40 = add nsw i32 %39, 1
  store i32 %40, i32* %6, align 4
  store i32 1, i32* %9, align 4
  br label %41

41:                                               ; preds = %38, %35
  br label %42

42:                                               ; preds = %41, %34
  br label %43

43:                                               ; preds = %42
  %44 = load i32, i32* %7, align 4
  %45 = add nsw i32 %44, 1
  store i32 %45, i32* %7, align 4
  br label %23

46:                                               ; preds = %23
  store i32 0, i32* %11, align 4
  store i32 0, i32* %13, align 4
  store i32 0, i32* %8, align 4
  br label %47

47:                                               ; preds = %125, %46
  %48 = load i32, i32* %8, align 4
  %49 = load i32, i32* %6, align 4
  %50 = icmp slt i32 %48, %49
  br i1 %50, label %51, label %128

51:                                               ; preds = %47
  %52 = load i32, i32* %11, align 4
  store i32 %52, i32* %7, align 4
  store i32 0, i32* %12, align 4
  br label %53

53:                                               ; preds = %86, %51
  %54 = load i32, i32* %7, align 4
  %55 = load i32, i32* %10, align 4
  %56 = icmp slt i32 %54, %55
  br i1 %56, label %57, label %91

57:                                               ; preds = %53
  %58 = load i32, i32* %7, align 4
  %59 = sext i32 %58 to i64
  %60 = getelementptr inbounds [100 x i8], [100 x i8]* %2, i64 0, i64 %59
  %61 = load i8, i8* %60, align 1
  %62 = sext i8 %61 to i32
  %63 = icmp ne i32 %62, 32
  br i1 %63, label %64, label %72

64:                                               ; preds = %57
  %65 = load i32, i32* %7, align 4
  %66 = sext i32 %65 to i64
  %67 = getelementptr inbounds [100 x i8], [100 x i8]* %2, i64 0, i64 %66
  %68 = load i8, i8* %67, align 1
  %69 = load i32, i32* %12, align 4
  %70 = sext i32 %69 to i64
  %71 = getelementptr inbounds [100 x i8], [100 x i8]* %4, i64 0, i64 %70
  store i8 %68, i8* %71, align 1
  br label %72

72:                                               ; preds = %64, %57
  %73 = load i32, i32* %7, align 4
  %74 = sext i32 %73 to i64
  %75 = getelementptr inbounds [100 x i8], [100 x i8]* %2, i64 0, i64 %74
  %76 = load i8, i8* %75, align 1
  %77 = sext i8 %76 to i32
  %78 = icmp eq i32 %77, 32
  br i1 %78, label %79, label %85

79:                                               ; preds = %72
  %80 = load i32, i32* %12, align 4
  %81 = sext i32 %80 to i64
  %82 = getelementptr inbounds [100 x i8], [100 x i8]* %4, i64 0, i64 %81
  store i8 0, i8* %82, align 1
  %83 = load i32, i32* %7, align 4
  %84 = add nsw i32 %83, 1
  store i32 %84, i32* %11, align 4
  br label %91

85:                                               ; preds = %72
  br label %86

86:                                               ; preds = %85
  %87 = load i32, i32* %7, align 4
  %88 = add nsw i32 %87, 1
  store i32 %88, i32* %7, align 4
  %89 = load i32, i32* %12, align 4
  %90 = add nsw i32 %89, 1
  store i32 %90, i32* %12, align 4
  br label %53

91:                                               ; preds = %79, %53
  %92 = load i32, i32* %7, align 4
  %93 = load i32, i32* %10, align 4
  %94 = icmp eq i32 %92, %93
  br i1 %94, label %95, label %99

95:                                               ; preds = %91
  %96 = load i32, i32* %12, align 4
  %97 = sext i32 %96 to i64
  %98 = getelementptr inbounds [100 x i8], [100 x i8]* %4, i64 0, i64 %97
  store i8 0, i8* %98, align 1
  br label %99

99:                                               ; preds = %95, %91
  %100 = getelementptr inbounds [100 x i8], [100 x i8]* %4, i64 0, i64 0
  %101 = getelementptr inbounds [100 x i8], [100 x i8]* %3, i64 0, i64 0
  %102 = call i32 @strcmp(i8* %100, i8* %101) #4
  %103 = icmp eq i32 %102, 0
  br i1 %103, label %104, label %108

104:                                              ; preds = %99
  %105 = getelementptr inbounds [100 x i8], [100 x i8]* %4, i64 0, i64 0
  %106 = getelementptr inbounds [100 x i8], [100 x i8]* %5, i64 0, i64 0
  %107 = call i8* @strcpy(i8* %105, i8* %106) #5
  br label %108

108:                                              ; preds = %104, %99
  %109 = load i32, i32* %13, align 4
  %110 = add nsw i32 %109, 1
  store i32 %110, i32* %13, align 4
  %111 = load i32, i32* %13, align 4
  %112 = load i32, i32* %6, align 4
  %113 = icmp ne i32 %111, %112
  br i1 %113, label %114, label %117

114:                                              ; preds = %108
  %115 = getelementptr inbounds [100 x i8], [100 x i8]* %4, i64 0, i64 0
  %116 = call i32 (i8*, ...) @printf(i8* getelementptr inbounds ([4 x i8], [4 x i8]* @.str, i64 0, i64 0), i8* %115)
  br label %117

117:                                              ; preds = %114, %108
  %118 = load i32, i32* %13, align 4
  %119 = load i32, i32* %6, align 4
  %120 = icmp eq i32 %118, %119
  br i1 %120, label %121, label %124

121:                                              ; preds = %117
  %122 = getelementptr inbounds [100 x i8], [100 x i8]* %4, i64 0, i64 0
  %123 = call i32 (i8*, ...) @printf(i8* getelementptr inbounds ([4 x i8], [4 x i8]* @.str.1, i64 0, i64 0), i8* %122)
  br label %124

124:                                              ; preds = %121, %117
  br label %125

125:                                              ; preds = %124
  %126 = load i32, i32* %8, align 4
  %127 = add nsw i32 %126, 1
  store i32 %127, i32* %8, align 4
  br label %47

128:                                              ; preds = %47
  ret i32 0
}

declare dso_local i32 @gets(...) #1

; Function Attrs: nounwind readonly
declare dso_local i64 @strlen(i8*) #2

; Function Attrs: nounwind readonly
declare dso_local i32 @strcmp(i8*, i8*) #2

; Function Attrs: nounwind
declare dso_local i8* @strcpy(i8*, i8*) #3

declare dso_local i32 @printf(i8*, ...) #1


!llvm.module.flags = !{!0}
!llvm.ident = !{!1}

!0 = !{i32 1, !"wchar_size", i32 4}
!1 = !{!"clang version 10.0.0-4ubuntu1 "}
